; Function Attrs: mustprogress uwtable
define noundef nonnull align 8 dereferenceable(96) ptr @_ZN4LIEF2PE11CodeViewPDBaSERKS1_(ptr noundef nonnull returned align 8 dereferenceable(96) %0, ptr noundef nonnull align 8 dereferenceable(96) %1) local_unnamed_addr #3 align 2 {
  %3 = tail call noundef nonnull align 8 dereferenceable(40) ptr @_ZN4LIEF2PE8CodeViewaSERKS1_(ptr noundef nonnull align 8 dereferenceable(40) %0, ptr noundef nonnull align 8 dereferenceable(40) %1)
  %4 = getelementptr inbounds i8, ptr %0, i64 40
  %5 = getelementptr inbounds i8, ptr %1, i64 40
  tail call void @llvm.memcpy.p0.p0.i64(ptr noundef nonnull align 8 dereferenceable(20) %4, ptr noundef nonnull align 8 dereferenceable(20) %5, i64 20, i1 false)
  %6 = getelementptr inbounds i8, ptr %0, i64 64
  %7 = getelementptr inbounds i8, ptr %1, i64 64
  %8 = tail call noundef nonnull align 8 dereferenceable(32) ptr @_ZNSt7__cxx1112basic_stringIcSt11char_traitsIcESaIcEEaSERKS4_(ptr noundef nonnull align 8 dereferenceable(32) %6, ptr noundef nonnull align 8 dereferenceable(32) %7)
  ret ptr %0
}